; Function Attrs: nounwind uwtable
define ptr @l___private_Lean_Meta_Tactic_Grind_EqResolution_0__Lean_Meta_Grind_eqResCore___lambda__3___boxed(ptr noundef %0, ptr noundef %1, ptr noundef %2, ptr noundef %3, ptr noundef %4, ptr noundef %5, ptr noundef %6, ptr noundef %7, ptr noundef %8, ptr noundef %9, ptr noundef %10, ptr noundef %11) local_unnamed_addr #0 {
  %13 = ptrtoint ptr %0 to i64
  %14 = lshr i64 %13, 1
  %15 = trunc i64 %14 to i8
  %16 = and i64 %13, 1
  %.not = icmp eq i64 %16, 0
  br i1 %.not, label %17, label %lean_dec.exit28

17:                                               ; preds = %12
  %18 = load i32, ptr %0, align 4, !tbaa !4
  %19 = icmp sgt i32 %18, 1
  br i1 %19, label %20, label %22, !prof !11

20:                                               ; preds = %17
  %21 = add nsw i32 %18, -1
  store i32 %21, ptr %0, align 4, !tbaa !4
  br label %lean_dec.exit28

22:                                               ; preds = %17
  %.not.i = icmp eq i32 %18, 0
  br i1 %.not.i, label %lean_dec.exit28, label %23

23:                                               ; preds = %22
  tail call void @lean_dec_ref_cold(ptr noundef nonnull %0) #4
  br label %lean_dec.exit28

lean_dec.exit28:                                  ; preds = %23, %22, %20, %12
  %24 = getelementptr i8, ptr %5, i64 8
  %.val = load i64, ptr %24, align 8, !tbaa !14
  %25 = ptrtoint ptr %5 to i64
  %26 = and i64 %25, 1
  %.not43 = icmp eq i64 %26, 0
  br i1 %.not43, label %27, label %lean_dec.exit27

27:                                               ; preds = %lean_dec.exit28
  %28 = load i32, ptr %5, align 4, !tbaa !4
  %29 = icmp sgt i32 %28, 1
  br i1 %29, label %30, label %32, !prof !11

30:                                               ; preds = %27
  %31 = add nsw i32 %28, -1
  store i32 %31, ptr %5, align 4, !tbaa !4
  br label %lean_dec.exit27

32:                                               ; preds = %27
  %.not.i29 = icmp eq i32 %28, 0
  br i1 %.not.i29, label %lean_dec.exit27, label %33

33:                                               ; preds = %32
  tail call void @lean_dec_ref_cold(ptr noundef nonnull %5) #4
  br label %lean_dec.exit27

lean_dec.exit27:                                  ; preds = %33, %32, %30, %lean_dec.exit28
  %34 = tail call ptr @l___private_Lean_Meta_Tactic_Grind_EqResolution_0__Lean_Meta_Grind_eqResCore___lambda__3(i8 noundef zeroext %15, ptr noundef %1, ptr noundef %2, ptr noundef %3, ptr noundef %4, i64 noundef %.val, ptr poison, ptr noundef %7, ptr noundef %8, ptr noundef %9, ptr noundef %10, ptr noundef %11)
  %35 = ptrtoint ptr %10 to i64
  %36 = and i64 %35, 1
  %.not44 = icmp eq i64 %36, 0
  br i1 %.not44, label %37, label %lean_dec.exit26

37:                                               ; preds = %lean_dec.exit27
  %38 = load i32, ptr %10, align 4, !tbaa !4
  %39 = icmp sgt i32 %38, 1
  br i1 %39, label %40, label %42, !prof !11

40:                                               ; preds = %37
  %41 = add nsw i32 %38, -1
  store i32 %41, ptr %10, align 4, !tbaa !4
  br label %lean_dec.exit26

42:                                               ; preds = %37
  %.not.i31 = icmp eq i32 %38, 0
  br i1 %.not.i31, label %lean_dec.exit26, label %43

43:                                               ; preds = %42
  tail call void @lean_dec_ref_cold(ptr noundef nonnull %10) #4
  br label %lean_dec.exit26

lean_dec.exit26:                                  ; preds = %43, %42, %40, %lean_dec.exit27
  %44 = ptrtoint ptr %9 to i64
  %45 = and i64 %44, 1
  %.not45 = icmp eq i64 %45, 0
  br i1 %.not45, label %46, label %lean_dec.exit25

46:                                               ; preds = %lean_dec.exit26
  %47 = load i32, ptr %9, align 4, !tbaa !4
  %48 = icmp sgt i32 %47, 1
  br i1 %48, label %49, label %51, !prof !11

49:                                               ; preds = %46
  %50 = add nsw i32 %47, -1
  store i32 %50, ptr %9, align 4, !tbaa !4
  br label %lean_dec.exit25

51:                                               ; preds = %46
  %.not.i33 = icmp eq i32 %47, 0
  br i1 %.not.i33, label %lean_dec.exit25, label %52

52:                                               ; preds = %51
  tail call void @lean_dec_ref_cold(ptr noundef nonnull %9) #4
  br label %lean_dec.exit25

lean_dec.exit25:                                  ; preds = %52, %51, %49, %lean_dec.exit26
  %53 = ptrtoint ptr %8 to i64
  %54 = and i64 %53, 1
  %.not46 = icmp eq i64 %54, 0
  br i1 %.not46, label %55, label %lean_dec.exit24

55:                                               ; preds = %lean_dec.exit25
  %56 = load i32, ptr %8, align 4, !tbaa !4
  %57 = icmp sgt i32 %56, 1
  br i1 %57, label %58, label %60, !prof !11

58:                                               ; preds = %55
  %59 = add nsw i32 %56, -1
  store i32 %59, ptr %8, align 4, !tbaa !4
  br label %lean_dec.exit24

60:                                               ; preds = %55
  %.not.i35 = icmp eq i32 %56, 0
  br i1 %.not.i35, label %lean_dec.exit24, label %61

61:                                               ; preds = %60
  tail call void @lean_dec_ref_cold(ptr noundef nonnull %8) #4
  br label %lean_dec.exit24

lean_dec.exit24:                                  ; preds = %61, %60, %58, %lean_dec.exit25
  %62 = ptrtoint ptr %7 to i64
  %63 = and i64 %62, 1
  %.not47 = icmp eq i64 %63, 0
  br i1 %.not47, label %64, label %lean_dec.exit23

64:                                               ; preds = %lean_dec.exit24
  %65 = load i32, ptr %7, align 4, !tbaa !4
  %66 = icmp sgt i32 %65, 1
  br i1 %66, label %67, label %69, !prof !11

67:                                               ; preds = %64
  %68 = add nsw i32 %65, -1
  store i32 %68, ptr %7, align 4, !tbaa !4
  br label %lean_dec.exit23

69:                                               ; preds = %64
  %.not.i37 = icmp eq i32 %65, 0
  br i1 %.not.i37, label %lean_dec.exit23, label %70

70:                                               ; preds = %69
  tail call void @lean_dec_ref_cold(ptr noundef nonnull %7) #4
  br label %lean_dec.exit23

lean_dec.exit23:                                  ; preds = %70, %69, %67, %lean_dec.exit24
  %71 = ptrtoint ptr %6 to i64
  %72 = and i64 %71, 1
  %.not48 = icmp eq i64 %72, 0
  br i1 %.not48, label %73, label %lean_dec.exit22

73:                                               ; preds = %lean_dec.exit23
  %74 = load i32, ptr %6, align 4, !tbaa !4
  %75 = icmp sgt i32 %74, 1
  br i1 %75, label %76, label %78, !prof !11

76:                                               ; preds = %73
  %77 = add nsw i32 %74, -1
  store i32 %77, ptr %6, align 4, !tbaa !4
  br label %lean_dec.exit22

78:                                               ; preds = %73
  %.not.i39 = icmp eq i32 %74, 0
  br i1 %.not.i39, label %lean_dec.exit22, label %79

79:                                               ; preds = %78
  tail call void @lean_dec_ref_cold(ptr noundef nonnull %6) #4
  br label %lean_dec.exit22

lean_dec.exit22:                                  ; preds = %79, %78, %76, %lean_dec.exit23
  %80 = ptrtoint ptr %2 to i64
  %81 = and i64 %80, 1
  %.not49 = icmp eq i64 %81, 0
  br i1 %.not49, label %82, label %lean_dec.exit

82:                                               ; preds = %lean_dec.exit22
  %83 = load i32, ptr %2, align 4, !tbaa !4
  %84 = icmp sgt i32 %83, 1
  br i1 %84, label %85, label %87, !prof !11

85:                                               ; preds = %82
  %86 = add nsw i32 %83, -1
  store i32 %86, ptr %2, align 4, !tbaa !4
  br label %lean_dec.exit

87:                                               ; preds = %82
  %.not.i41 = icmp eq i32 %83, 0
  br i1 %.not.i41, label %lean_dec.exit, label %88

88:                                               ; preds = %87
  tail call void @lean_dec_ref_cold(ptr noundef nonnull %2) #4
  br label %lean_dec.exit

lean_dec.exit:                                    ; preds = %88, %87, %85, %lean_dec.exit22
  ret ptr %34
}